target datalayout = "e-m:e-p270:32:32-p271:32:32-p272:64:64-i64:64-i128:128-f80:128-n8:16:32:64-S128"
target triple = "x86_64-pc-linux-gnu"

%struct.Vec_Int_t_ = type { i32, i32, ptr }
%struct.Vec_Ptr_t_ = type { i32, i32, ptr }
%struct.Cec_ManSim_t_ = type { ptr, ptr, i32, ptr, ptr, i32, i32, i32, i32, i32, ptr, ptr, ptr, i32, i32, ptr, ptr, ptr, ptr, ptr, ptr, ptr }

; Function Attrs: inlinehint nounwind uwtable
define internal void @Vec_PtrFree(ptr noundef %0) #5 {
  %2 = alloca ptr, align 8
  store ptr %0, ptr %2, align 8, !tbaa !44
  %3 = load ptr, ptr %2, align 8, !tbaa !44
  %4 = getelementptr inbounds nuw %struct.Vec_Ptr_t_, ptr %3, i32 0, i32 2
  %5 = load ptr, ptr %4, align 8, !tbaa !48
  %6 = icmp ne ptr %5, null
  br i1 %6, label %7, label %13

7:                                                ; preds = %1
  %8 = load ptr, ptr %2, align 8, !tbaa !44
  %9 = getelementptr inbounds nuw %struct.Vec_Ptr_t_, ptr %8, i32 0, i32 2
  %10 = load ptr, ptr %9, align 8, !tbaa !48
  call void @free(ptr noundef %10) #10
  %11 = load ptr, ptr %2, align 8, !tbaa !44
  %12 = getelementptr inbounds nuw %struct.Vec_Ptr_t_, ptr %11, i32 0, i32 2
  store ptr null, ptr %12, align 8, !tbaa !48
  br label %14

13:                                               ; preds = %1
  br label %14

14:                                               ; preds = %13, %7
  %15 = load ptr, ptr %2, align 8, !tbaa !44
  %16 = icmp ne ptr %15, null
  br i1 %16, label %17, label %19

17:                                               ; preds = %14
  %18 = load ptr, ptr %2, align 8, !tbaa !44
  call void @free(ptr noundef %18) #10
  store ptr null, ptr %2, align 8, !tbaa !44
  br label %20

19:                                               ; preds = %14
  br label %20

20:                                               ; preds = %19, %17
  ret void
}

; Function Attrs: inlinehint nounwind uwtable
define internal void @Vec_IntFree(ptr noundef %0) #5 {
  %2 = alloca ptr, align 8
  store ptr %0, ptr %2, align 8, !tbaa !49
  %3 = load ptr, ptr %2, align 8, !tbaa !49
  %4 = getelementptr inbounds nuw %struct.Vec_Int_t_, ptr %3, i32 0, i32 2
  %5 = load ptr, ptr %4, align 8, !tbaa !52
  %6 = icmp ne ptr %5, null
  br i1 %6, label %7, label %13

7:                                                ; preds = %1
  %8 = load ptr, ptr %2, align 8, !tbaa !49
  %9 = getelementptr inbounds nuw %struct.Vec_Int_t_, ptr %8, i32 0, i32 2
  %10 = load ptr, ptr %9, align 8, !tbaa !52
  call void @free(ptr noundef %10) #10
  %11 = load ptr, ptr %2, align 8, !tbaa !49
  %12 = getelementptr inbounds nuw %struct.Vec_Int_t_, ptr %11, i32 0, i32 2
  store ptr null, ptr %12, align 8, !tbaa !52
  br label %14

13:                                               ; preds = %1
  br label %14

14:                                               ; preds = %13, %7
  %15 = load ptr, ptr %2, align 8, !tbaa !49
  %16 = icmp ne ptr %15, null
  br i1 %16, label %17, label %19

17:                                               ; preds = %14
  %18 = load ptr, ptr %2, align 8, !tbaa !49
  call void @free(ptr noundef %18) #10
  store ptr null, ptr %2, align 8, !tbaa !49
  br label %20

19:                                               ; preds = %14
  br label %20

20:                                               ; preds = %19, %17
  ret void
}

; Function Attrs: nounwind uwtable
define void @Cec_ManSimStop(ptr noundef %0) #0 {
  %2 = alloca ptr, align 8
  store ptr %0, ptr %2, align 8, !tbaa !101
  %3 = load ptr, ptr %2, align 8, !tbaa !101
  %4 = getelementptr inbounds nuw %struct.Cec_ManSim_t_, ptr %3, i32 0, i32 18
  %5 = load ptr, ptr %4, align 8, !tbaa !110
  call void @Vec_IntFree(ptr noundef %5)
  %6 = load ptr, ptr %2, align 8, !tbaa !101
  %7 = getelementptr inbounds nuw %struct.Cec_ManSim_t_, ptr %6, i32 0, i32 19
  %8 = load ptr, ptr %7, align 8, !tbaa !111
  call void @Vec_IntFree(ptr noundef %8)
  %9 = load ptr, ptr %2, align 8, !tbaa !101
  %10 = getelementptr inbounds nuw %struct.Cec_ManSim_t_, ptr %9, i32 0, i32 20
  %11 = load ptr, ptr %10, align 8, !tbaa !112
  call void @Vec_IntFree(ptr noundef %11)
  %12 = load ptr, ptr %2, align 8, !tbaa !101
  %13 = getelementptr inbounds nuw %struct.Cec_ManSim_t_, ptr %12, i32 0, i32 21
  %14 = load ptr, ptr %13, align 8, !tbaa !113
  call void @Vec_IntFree(ptr noundef %14)
  %15 = load ptr, ptr %2, align 8, !tbaa !101
  %16 = getelementptr inbounds nuw %struct.Cec_ManSim_t_, ptr %15, i32 0, i32 10
  %17 = load ptr, ptr %16, align 8, !tbaa !114
  %18 = icmp ne ptr %17, null
  br i1 %18, label %19, label %23

19:                                               ; preds = %1
  %20 = load ptr, ptr %2, align 8, !tbaa !101
  %21 = getelementptr inbounds nuw %struct.Cec_ManSim_t_, ptr %20, i32 0, i32 10
  %22 = load ptr, ptr %21, align 8, !tbaa !114
  call void @Vec_PtrFree(ptr noundef %22)
  br label %23

23:                                               ; preds = %19, %1
  %24 = load ptr, ptr %2, align 8, !tbaa !101
  %25 = getelementptr inbounds nuw %struct.Cec_ManSim_t_, ptr %24, i32 0, i32 11
  %26 = load ptr, ptr %25, align 8, !tbaa !116
  %27 = icmp ne ptr %26, null
  br i1 %27, label %28, label %32

28:                                               ; preds = %23
  %29 = load ptr, ptr %2, align 8, !tbaa !101
  %30 = getelementptr inbounds nuw %struct.Cec_ManSim_t_, ptr %29, i32 0, i32 11
  %31 = load ptr, ptr %30, align 8, !tbaa !116
  call void @Vec_PtrFree(ptr noundef %31)
  br label %32

32:                                               ; preds = %28, %23
  %33 = load ptr, ptr %2, align 8, !tbaa !101
  %34 = getelementptr inbounds nuw %struct.Cec_ManSim_t_, ptr %33, i32 0, i32 17
  %35 = load ptr, ptr %34, align 8, !tbaa !124
  %36 = icmp ne ptr %35, null
  br i1 %36, label %37, label %43

37:                                               ; preds = %32
  %38 = load ptr, ptr %2, align 8, !tbaa !101
  %39 = getelementptr inbounds nuw %struct.Cec_ManSim_t_, ptr %38, i32 0, i32 17
  %40 = load ptr, ptr %39, align 8, !tbaa !124
  call void @free(ptr noundef %40) #10
  %41 = load ptr, ptr %2, align 8, !tbaa !101
  %42 = getelementptr inbounds nuw %struct.Cec_ManSim_t_, ptr %41, i32 0, i32 17
  store ptr null, ptr %42, align 8, !tbaa !124
  br label %44

43:                                               ; preds = %32
  br label %44

44:                                               ; preds = %43, %37
  %45 = load ptr, ptr %2, align 8, !tbaa !101
  %46 = getelementptr inbounds nuw %struct.Cec_ManSim_t_, ptr %45, i32 0, i32 15
  %47 = load ptr, ptr %46, align 8, !tbaa !125
  %48 = icmp ne ptr %47, null
  br i1 %48, label %49, label %55

49:                                               ; preds = %44
  %50 = load ptr, ptr %2, align 8, !tbaa !101
  %51 = getelementptr inbounds nuw %struct.Cec_ManSim_t_, ptr %50, i32 0, i32 15
  %52 = load ptr, ptr %51, align 8, !tbaa !125
  call void @free(ptr noundef %52) #10
  %53 = load ptr, ptr %2, align 8, !tbaa !101
  %54 = getelementptr inbounds nuw %struct.Cec_ManSim_t_, ptr %53, i32 0, i32 15
  store ptr null, ptr %54, align 8, !tbaa !125
  br label %56

55:                                               ; preds = %44
  br label %56

56:                                               ; preds = %55, %49
  %57 = load ptr, ptr %2, align 8, !tbaa !101
  %58 = getelementptr inbounds nuw %struct.Cec_ManSim_t_, ptr %57, i32 0, i32 12
  %59 = load ptr, ptr %58, align 8, !tbaa !126
  %60 = icmp ne ptr %59, null
  br i1 %60, label %61, label %67

61:                                               ; preds = %56
  %62 = load ptr, ptr %2, align 8, !tbaa !101
  %63 = getelementptr inbounds nuw %struct.Cec_ManSim_t_, ptr %62, i32 0, i32 12
  %64 = load ptr, ptr %63, align 8, !tbaa !126
  call void @free(ptr noundef %64) #10
  %65 = load ptr, ptr %2, align 8, !tbaa !101
  %66 = getelementptr inbounds nuw %struct.Cec_ManSim_t_, ptr %65, i32 0, i32 12
  store ptr null, ptr %66, align 8, !tbaa !126
  br label %68

67:                                               ; preds = %56
  br label %68

68:                                               ; preds = %67, %61
  %69 = load ptr, ptr %2, align 8, !tbaa !101
  %70 = getelementptr inbounds nuw %struct.Cec_ManSim_t_, ptr %69, i32 0, i32 4
  %71 = load ptr, ptr %70, align 8, !tbaa !127
  %72 = icmp ne ptr %71, null
  br i1 %72, label %73, label %79

73:                                               ; preds = %68
  %74 = load ptr, ptr %2, align 8, !tbaa !101
  %75 = getelementptr inbounds nuw %struct.Cec_ManSim_t_, ptr %74, i32 0, i32 4
  %76 = load ptr, ptr %75, align 8, !tbaa !127
  call void @free(ptr noundef %76) #10
  %77 = load ptr, ptr %2, align 8, !tbaa !101
  %78 = getelementptr inbounds nuw %struct.Cec_ManSim_t_, ptr %77, i32 0, i32 4
  store ptr null, ptr %78, align 8, !tbaa !127
  br label %80

79:                                               ; preds = %68
  br label %80

80:                                               ; preds = %79, %73
  %81 = load ptr, ptr %2, align 8, !tbaa !101
  %82 = getelementptr inbounds nuw %struct.Cec_ManSim_t_, ptr %81, i32 0, i32 3
  %83 = load ptr, ptr %82, align 8, !tbaa !109
  %84 = icmp ne ptr %83, null
  br i1 %84, label %85, label %91

85:                                               ; preds = %80
  %86 = load ptr, ptr %2, align 8, !tbaa !101
  %87 = getelementptr inbounds nuw %struct.Cec_ManSim_t_, ptr %86, i32 0, i32 3
  %88 = load ptr, ptr %87, align 8, !tbaa !109
  call void @free(ptr noundef %88) #10
  %89 = load ptr, ptr %2, align 8, !tbaa !101
  %90 = getelementptr inbounds nuw %struct.Cec_ManSim_t_, ptr %89, i32 0, i32 3
  store ptr null, ptr %90, align 8, !tbaa !109
  br label %92

91:                                               ; preds = %80
  br label %92

92:                                               ; preds = %91, %85
  %93 = load ptr, ptr %2, align 8, !tbaa !101
  %94 = icmp ne ptr %93, null
  br i1 %94, label %95, label %97

95:                                               ; preds = %92
  %96 = load ptr, ptr %2, align 8, !tbaa !101
  call void @free(ptr noundef %96) #10
  store ptr null, ptr %2, align 8, !tbaa !101
  br label %98

97:                                               ; preds = %92
  br label %98

98:                                               ; preds = %97, %95
  ret void
}