; Function Attrs: mustprogress nounwind willreturn uwtable
define void @Cec_ManSimStop(ptr noundef captures(none) %0) local_unnamed_addr #10 {
  %2 = getelementptr inbounds nuw i8, ptr %0, i64 120
  %3 = load ptr, ptr %2, align 8, !tbaa !99
  %4 = getelementptr inbounds nuw i8, ptr %3, i64 8
  %5 = load ptr, ptr %4, align 8, !tbaa !43
  %.not.i = icmp eq ptr %5, null
  br i1 %.not.i, label %Vec_IntFree.exit, label %6

6:                                                ; preds = %1
  tail call void @free(ptr noundef nonnull %5) #18
  br label %Vec_IntFree.exit

Vec_IntFree.exit:                                 ; preds = %1, %6
  tail call void @free(ptr noundef nonnull %3) #18
  %7 = getelementptr inbounds nuw i8, ptr %0, i64 128
  %8 = load ptr, ptr %7, align 8, !tbaa !100
  %9 = getelementptr inbounds nuw i8, ptr %8, i64 8
  %10 = load ptr, ptr %9, align 8, !tbaa !43
  %.not.i39 = icmp eq ptr %10, null
  br i1 %.not.i39, label %Vec_IntFree.exit40, label %11

11:                                               ; preds = %Vec_IntFree.exit
  tail call void @free(ptr noundef nonnull %10) #18
  br label %Vec_IntFree.exit40

Vec_IntFree.exit40:                               ; preds = %Vec_IntFree.exit, %11
  tail call void @free(ptr noundef nonnull %8) #18
  %12 = getelementptr inbounds nuw i8, ptr %0, i64 136
  %13 = load ptr, ptr %12, align 8, !tbaa !101
  %14 = getelementptr inbounds nuw i8, ptr %13, i64 8
  %15 = load ptr, ptr %14, align 8, !tbaa !43
  %.not.i41 = icmp eq ptr %15, null
  br i1 %.not.i41, label %Vec_IntFree.exit42, label %16

16:                                               ; preds = %Vec_IntFree.exit40
  tail call void @free(ptr noundef nonnull %15) #18
  br label %Vec_IntFree.exit42

Vec_IntFree.exit42:                               ; preds = %Vec_IntFree.exit40, %16
  tail call void @free(ptr noundef nonnull %13) #18
  %17 = getelementptr inbounds nuw i8, ptr %0, i64 144
  %18 = load ptr, ptr %17, align 8, !tbaa !102
  %19 = getelementptr inbounds nuw i8, ptr %18, i64 8
  %20 = load ptr, ptr %19, align 8, !tbaa !43
  %.not.i43 = icmp eq ptr %20, null
  br i1 %.not.i43, label %Vec_IntFree.exit44, label %21

21:                                               ; preds = %Vec_IntFree.exit42
  tail call void @free(ptr noundef nonnull %20) #18
  br label %Vec_IntFree.exit44

Vec_IntFree.exit44:                               ; preds = %Vec_IntFree.exit42, %21
  tail call void @free(ptr noundef nonnull %18) #18
  %22 = getelementptr inbounds nuw i8, ptr %0, i64 64
  %23 = load ptr, ptr %22, align 8, !tbaa !106
  %.not = icmp eq ptr %23, null
  br i1 %.not, label %28, label %24

24:                                               ; preds = %Vec_IntFree.exit44
  %25 = getelementptr inbounds nuw i8, ptr %23, i64 8
  %26 = load ptr, ptr %25, align 8, !tbaa !38
  %.not.i45 = icmp eq ptr %26, null
  br i1 %.not.i45, label %Vec_PtrFree.exit, label %27

27:                                               ; preds = %24
  tail call void @free(ptr noundef nonnull %26) #18
  br label %Vec_PtrFree.exit

Vec_PtrFree.exit:                                 ; preds = %24, %27
  tail call void @free(ptr noundef nonnull %23) #18
  br label %28

28:                                               ; preds = %Vec_PtrFree.exit, %Vec_IntFree.exit44
  %29 = getelementptr inbounds nuw i8, ptr %0, i64 72
  %30 = load ptr, ptr %29, align 8, !tbaa !109
  %.not32 = icmp eq ptr %30, null
  br i1 %.not32, label %35, label %31

31:                                               ; preds = %28
  %32 = getelementptr inbounds nuw i8, ptr %30, i64 8
  %33 = load ptr, ptr %32, align 8, !tbaa !38
  %.not.i46 = icmp eq ptr %33, null
  br i1 %.not.i46, label %Vec_PtrFree.exit47, label %34

34:                                               ; preds = %31
  tail call void @free(ptr noundef nonnull %33) #18
  br label %Vec_PtrFree.exit47

Vec_PtrFree.exit47:                               ; preds = %31, %34
  tail call void @free(ptr noundef nonnull %30) #18
  br label %35

35:                                               ; preds = %Vec_PtrFree.exit47, %28
  %36 = getelementptr inbounds nuw i8, ptr %0, i64 112
  %37 = load ptr, ptr %36, align 8, !tbaa !112
  %.not33 = icmp eq ptr %37, null
  br i1 %.not33, label %39, label %38

38:                                               ; preds = %35
  tail call void @free(ptr noundef nonnull %37) #18
  store ptr null, ptr %36, align 8, !tbaa !112
  br label %39

39:                                               ; preds = %35, %38
  %40 = getelementptr inbounds nuw i8, ptr %0, i64 96
  %41 = load ptr, ptr %40, align 8, !tbaa !113
  %.not34 = icmp eq ptr %41, null
  br i1 %.not34, label %43, label %42

42:                                               ; preds = %39
  tail call void @free(ptr noundef nonnull %41) #18
  store ptr null, ptr %40, align 8, !tbaa !113
  br label %43

43:                                               ; preds = %39, %42
  %44 = getelementptr inbounds nuw i8, ptr %0, i64 80
  %45 = load ptr, ptr %44, align 8, !tbaa !114
  %.not35 = icmp eq ptr %45, null
  br i1 %.not35, label %47, label %46

46:                                               ; preds = %43
  tail call void @free(ptr noundef nonnull %45) #18
  store ptr null, ptr %44, align 8, !tbaa !114
  br label %47

47:                                               ; preds = %43, %46
  %48 = getelementptr inbounds nuw i8, ptr %0, i64 32
  %49 = load ptr, ptr %48, align 8, !tbaa !115
  %.not36 = icmp eq ptr %49, null
  br i1 %.not36, label %51, label %50

50:                                               ; preds = %47
  tail call void @free(ptr noundef nonnull %49) #18
  store ptr null, ptr %48, align 8, !tbaa !115
  br label %51

51:                                               ; preds = %47, %50
  %52 = getelementptr inbounds nuw i8, ptr %0, i64 24
  %53 = load ptr, ptr %52, align 8, !tbaa !98
  %.not37 = icmp eq ptr %53, null
  br i1 %.not37, label %55, label %54

54:                                               ; preds = %51
  tail call void @free(ptr noundef nonnull %53) #18
  br label %55

55:                                               ; preds = %51, %54
  tail call void @free(ptr noundef nonnull %0) #18
  ret void
}